target datalayout = "e-m:e-p270:32:32-p271:32:32-p272:64:64-i64:64-i128:128-f80:128-n8:16:32:64-S128"
target triple = "x86_64-unknown-linux-gnu"

%"class.std::set.0" = type { %"class.std::_Rb_tree.1" }
%"class.std::_Rb_tree.1" = type { %"struct.std::_Rb_tree<QuantLib::Observer *, QuantLib::Observer *, std::_Identity<QuantLib::Observer *>, std::less<QuantLib::Observer *>>::_Rb_tree_impl" }
%"struct.std::_Rb_tree<QuantLib::Observer *, QuantLib::Observer *, std::_Identity<QuantLib::Observer *>, std::less<QuantLib::Observer *>>::_Rb_tree_impl" = type { [8 x i8], %"struct.std::_Rb_tree_header" }
%"struct.std::_Rb_tree_header" = type { %"struct.std::_Rb_tree_node_base", i64 }
%"struct.std::_Rb_tree_node_base" = type { i32, ptr, ptr, ptr }
%"class.std::set" = type { %"class.std::_Rb_tree" }
%"class.std::_Rb_tree" = type { %"struct.std::_Rb_tree<boost::shared_ptr<QuantLib::Observable>, boost::shared_ptr<QuantLib::Observable>, std::_Identity<boost::shared_ptr<QuantLib::Observable>>, std::less<boost::shared_ptr<QuantLib::Observable>>>::_Rb_tree_impl" }
%"struct.std::_Rb_tree<boost::shared_ptr<QuantLib::Observable>, boost::shared_ptr<QuantLib::Observable>, std::_Identity<boost::shared_ptr<QuantLib::Observable>>, std::less<boost::shared_ptr<QuantLib::Observable>>>::_Rb_tree_impl" = type { [8 x i8], %"struct.std::_Rb_tree_header" }
%"class.boost::detail::shared_count" = type { ptr }
%"class.QuantLib::Observable" = type { ptr, %"class.std::set.0" }
%"class.QuantLib::Handle" = type { %"class.boost::shared_ptr.16" }
%"class.boost::shared_ptr.16" = type { ptr, %"class.boost::detail::shared_count" }
%"class.QuantLib::Handle.17" = type { %"class.boost::shared_ptr.18" }
%"class.boost::shared_ptr.18" = type { ptr, %"class.boost::detail::shared_count" }
%"class.QuantLib::Handle.19" = type { %"class.boost::shared_ptr.20" }
%"class.boost::shared_ptr.20" = type { ptr, %"class.boost::detail::shared_count" }
%"class.QuantLib::VegaStressedBlackScholesProcess" = type { %"class.QuantLib::GeneralizedBlackScholesProcess.base", double, double, double, double, double }
%"class.QuantLib::GeneralizedBlackScholesProcess.base" = type <{ %"class.QuantLib::StochasticProcess1D", %"class.QuantLib::Handle", %"class.QuantLib::Handle.17", %"class.QuantLib::Handle.17", %"class.QuantLib::Handle.19", %"class.QuantLib::Handle.21", i8, i8, [6 x i8], %"class.QuantLib::RelinkableHandle", i8, i8 }>
%"class.QuantLib::StochasticProcess1D" = type { %"class.QuantLib::StochasticProcess", %"class.boost::shared_ptr.15" }
%"class.QuantLib::StochasticProcess" = type { %"class.QuantLib::Observer", %"class.QuantLib::Observable", %"class.boost::shared_ptr.14" }
%"class.QuantLib::Observer" = type { ptr, %"class.std::set" }
%"class.boost::shared_ptr.14" = type { ptr, %"class.boost::detail::shared_count" }
%"class.boost::shared_ptr.15" = type { ptr, %"class.boost::detail::shared_count" }
%"class.QuantLib::Handle.21" = type { %"class.boost::shared_ptr.22" }
%"class.boost::shared_ptr.22" = type { ptr, %"class.boost::detail::shared_count" }
%"class.QuantLib::RelinkableHandle" = type { %"class.QuantLib::Handle.21" }

; Function Attrs: mustprogress uwtable
define noundef double @_ZNK8QuantLib31VegaStressedBlackScholesProcess9diffusionEdd(ptr noundef nonnull align 8 dereferenceable(296) %this, double noundef %t, double noundef %x) unnamed_addr #2 align 2 {
entry:
  %retval = alloca double, align 8
  %this.addr = alloca ptr, align 8
  %t.addr = alloca double, align 8
  %x.addr = alloca double, align 8
  store ptr %this, ptr %this.addr, align 8, !tbaa !3
  store double %t, ptr %t.addr, align 8, !tbaa !12
  store double %x, ptr %x.addr, align 8, !tbaa !12
  %this1 = load ptr, ptr %this.addr, align 8
  %lowerTimeBorderForStressTest_ = getelementptr inbounds nuw %"class.QuantLib::VegaStressedBlackScholesProcess", ptr %this1, i32 0, i32 1
  %0 = load double, ptr %lowerTimeBorderForStressTest_, align 8, !tbaa !16
  %1 = load double, ptr %t.addr, align 8, !tbaa !12
  %cmp = fcmp ole double %0, %1
  br i1 %cmp, label %land.lhs.true, label %if.else

land.lhs.true:                                    ; preds = %entry
  %2 = load double, ptr %t.addr, align 8, !tbaa !12
  %upperTimeBorderForStressTest_ = getelementptr inbounds nuw %"class.QuantLib::VegaStressedBlackScholesProcess", ptr %this1, i32 0, i32 2
  %3 = load double, ptr %upperTimeBorderForStressTest_, align 8, !tbaa !49
  %cmp2 = fcmp ole double %2, %3
  br i1 %cmp2, label %land.lhs.true3, label %if.else

land.lhs.true3:                                   ; preds = %land.lhs.true
  %lowerAssetBorderForStressTest_ = getelementptr inbounds nuw %"class.QuantLib::VegaStressedBlackScholesProcess", ptr %this1, i32 0, i32 3
  %4 = load double, ptr %lowerAssetBorderForStressTest_, align 8, !tbaa !50
  %5 = load double, ptr %x.addr, align 8, !tbaa !12
  %cmp4 = fcmp ole double %4, %5
  br i1 %cmp4, label %land.lhs.true5, label %if.else

land.lhs.true5:                                   ; preds = %land.lhs.true3
  %6 = load double, ptr %x.addr, align 8, !tbaa !12
  %upperAssetBorderForStressTest_ = getelementptr inbounds nuw %"class.QuantLib::VegaStressedBlackScholesProcess", ptr %this1, i32 0, i32 4
  %7 = load double, ptr %upperAssetBorderForStressTest_, align 8, !tbaa !51
  %cmp6 = fcmp ole double %6, %7
  br i1 %cmp6, label %if.then, label %if.else

if.then:                                          ; preds = %land.lhs.true5
  %8 = load double, ptr %t.addr, align 8, !tbaa !12
  %9 = load double, ptr %x.addr, align 8, !tbaa !12
  %call = call noundef double @_ZNK8QuantLib30GeneralizedBlackScholesProcess9diffusionEdd(ptr noundef nonnull align 8 dereferenceable(250) %this1, double noundef %8, double noundef %9)
  %stressLevel_ = getelementptr inbounds nuw %"class.QuantLib::VegaStressedBlackScholesProcess", ptr %this1, i32 0, i32 5
  %10 = load double, ptr %stressLevel_, align 8, !tbaa !52
  %add = fadd double %call, %10
  store double %add, ptr %retval, align 8
  br label %return

if.else:                                          ; preds = %land.lhs.true5, %land.lhs.true3, %land.lhs.true, %entry
  %11 = load double, ptr %t.addr, align 8, !tbaa !12
  %12 = load double, ptr %x.addr, align 8, !tbaa !12
  %call7 = call noundef double @_ZNK8QuantLib30GeneralizedBlackScholesProcess9diffusionEdd(ptr noundef nonnull align 8 dereferenceable(250) %this1, double noundef %11, double noundef %12)
  store double %call7, ptr %retval, align 8
  br label %return

return:                                           ; preds = %if.else, %if.then
  %13 = load double, ptr %retval, align 8
  ret double %13
}