; Function Attrs: mustprogress uwtable
define noundef double @_ZNK8QuantLib31VegaStressedBlackScholesProcess9diffusionEdd(ptr noundef nonnull align 8 dereferenceable(296) %this, double noundef %t, double noundef %x) unnamed_addr #6 align 2 {
entry:
  %lowerTimeBorderForStressTest_ = getelementptr inbounds nuw i8, ptr %this, i64 256
  %0 = load double, ptr %lowerTimeBorderForStressTest_, align 8, !tbaa !38
  %cmp = fcmp ugt double %0, %t
  %upperTimeBorderForStressTest_ = getelementptr inbounds nuw i8, ptr %this, i64 264
  %1 = load double, ptr %upperTimeBorderForStressTest_, align 8
  %cmp2 = fcmp ugt double %t, %1
  %or.cond = select i1 %cmp, i1 true, i1 %cmp2
  %lowerAssetBorderForStressTest_ = getelementptr inbounds nuw i8, ptr %this, i64 272
  %2 = load double, ptr %lowerAssetBorderForStressTest_, align 8
  %cmp4 = fcmp ugt double %2, %x
  %or.cond7 = select i1 %or.cond, i1 true, i1 %cmp4
  %upperAssetBorderForStressTest_ = getelementptr inbounds nuw i8, ptr %this, i64 280
  %3 = load double, ptr %upperAssetBorderForStressTest_, align 8
  %cmp6 = fcmp ugt double %x, %3
  %or.cond8 = select i1 %or.cond7, i1 true, i1 %cmp6
  %call7 = tail call noundef double @_ZNK8QuantLib30GeneralizedBlackScholesProcess9diffusionEdd(ptr noundef nonnull align 8 dereferenceable(250) %this, double noundef %t, double noundef %x)
  %stressLevel_ = getelementptr inbounds nuw i8, ptr %this, i64 288
  %4 = load double, ptr %stressLevel_, align 8
  %add = fadd double %call7, %4
  %retval.0 = select i1 %or.cond8, double %call7, double %add
  ret double %retval.0
}